; ModuleID = 'source-C-CXX/35/919.cpp'
source_filename = "source-C-CXX/35/919.cpp"
target datalayout = "e-m:e-p270:32:32-p271:32:32-p272:64:64-i64:64-f80:128-n8:16:32:64-S128"
target triple = "x86_64-pc-linux-gnu"

%"class.std::ios_base::Init" = type { i8 }
%"class.std::basic_istream" = type { i32 (...)**, i64, %"class.std::basic_ios" }
%"class.std::basic_ios" = type { %"class.std::ios_base", %"class.std::basic_ostream"*, i8, i8, %"class.std::basic_streambuf"*, %"class.std::ctype"*, %"class.std::num_put"*, %"class.std::num_get"* }
%"class.std::ios_base" = type { i32 (...)**, i64, i64, i32, i32, i32, %"struct.std::ios_base::_Callback_list"*, %"struct.std::ios_base::_Words", [8 x %"struct.std::ios_base::_Words"], i32, %"struct.std::ios_base::_Words"*, %"class.std::locale" }
%"struct.std::ios_base::_Callback_list" = type { %"struct.std::ios_base::_Callback_list"*, void (i32, %"class.std::ios_base"*, i32)*, i32, i32 }
%"struct.std::ios_base::_Words" = type { i8*, i64 }
%"class.std::locale" = type { %"class.std::locale::_Impl"* }
%"class.std::locale::_Impl" = type { i32, %"class.std::locale::facet"**, i64, %"class.std::locale::facet"**, i8** }
%"class.std::locale::facet" = type <{ i32 (...)**, i32, [4 x i8] }>
%"class.std::basic_ostream" = type { i32 (...)**, %"class.std::basic_ios" }
%"class.std::basic_streambuf" = type { i32 (...)**, i8*, i8*, i8*, i8*, i8*, i8*, %"class.std::locale" }
%"class.std::ctype" = type <{ %"class.std::locale::facet.base", [4 x i8], %struct.__locale_struct*, i8, [7 x i8], i32*, i32*, i16*, i8, [256 x i8], [256 x i8], i8, [6 x i8] }>
%"class.std::locale::facet.base" = type <{ i32 (...)**, i32 }>
%struct.__locale_struct = type { [13 x %struct.__locale_data*], i16*, i32*, i32*, [13 x i8*] }
%struct.__locale_data = type opaque
%"class.std::num_put" = type { %"class.std::locale::facet.base", [4 x i8] }
%"class.std::num_get" = type { %"class.std::locale::facet.base", [4 x i8] }

@_ZStL8__ioinit = internal global %"class.std::ios_base::Init" zeroinitializer, align 1
@__dso_handle = external hidden global i8
@_ZSt3cin = external global %"class.std::basic_istream", align 8
@_ZSt4cout = external global %"class.std::basic_ostream", align 8
@.str = private unnamed_addr constant [3 x i8] c"NO\00", align 1
@.str.1 = private unnamed_addr constant [4 x i8] c"YES\00", align 1
@llvm.global_ctors = appending global [1 x { i32, void ()*, i8* }] [{ i32, void ()*, i8* } { i32 65535, void ()* @_GLOBAL__sub_I_919.cpp, i8* null }]

declare void @_ZNSt8ios_base4InitC1Ev(%"class.std::ios_base::Init"* nonnull align 1 dereferenceable(1)) unnamed_addr #0

; Function Attrs: nounwind
declare void @_ZNSt8ios_base4InitD1Ev(%"class.std::ios_base::Init"* nonnull align 1 dereferenceable(1)) unnamed_addr #1

; Function Attrs: nofree nounwind
declare i32 @__cxa_atexit(void (i8*)*, i8*, i8*) local_unnamed_addr #2

; Function Attrs: mustprogress norecurse sspstrong uwtable
define dso_local i32 @main() local_unnamed_addr #3 {
  %1 = alloca [100 x i8], align 16
  %2 = alloca [100 x i8], align 16
  %3 = getelementptr inbounds [100 x i8], [100 x i8]* %1, i64 0, i64 0
  call void @llvm.lifetime.start.p0i8(i64 100, i8* nonnull %3) #7
  %4 = getelementptr inbounds [100 x i8], [100 x i8]* %2, i64 0, i64 0
  call void @llvm.lifetime.start.p0i8(i64 100, i8* nonnull %4) #7
  call void @_ZSt17__istream_extractRSiPcl(%"class.std::basic_istream"* nonnull align 8 dereferenceable(16) @_ZSt3cin, i8* nonnull %3, i64 100)
  call void @_ZSt17__istream_extractRSiPcl(%"class.std::basic_istream"* nonnull align 8 dereferenceable(16) @_ZSt3cin, i8* nonnull %4, i64 100)
  %5 = load i8, i8* %3, align 16, !tbaa !5
  %6 = icmp eq i8 %5, 0
  br i1 %6, label %7, label %8

7:                                                ; preds = %22, %0
  br label %54

8:                                                ; preds = %0, %22
  %9 = phi i64 [ %25, %22 ], [ 0, %0 ]
  %10 = phi i8 [ %27, %22 ], [ %5, %0 ]
  %11 = load i8, i8* %4, align 16, !tbaa !5
  %12 = icmp eq i8 %11, 0
  br i1 %12, label %29, label %13

13:                                               ; preds = %8, %17
  %14 = phi i64 [ %18, %17 ], [ 0, %8 ]
  %15 = phi i8 [ %20, %17 ], [ %11, %8 ]
  %16 = icmp eq i8 %10, %15
  br i1 %16, label %22, label %17

17:                                               ; preds = %13
  %18 = add nuw i64 %14, 1
  %19 = getelementptr inbounds [100 x i8], [100 x i8]* %2, i64 0, i64 %18
  %20 = load i8, i8* %19, align 1, !tbaa !5
  %21 = icmp eq i8 %20, 0
  br i1 %21, label %29, label %13, !llvm.loop !8

22:                                               ; preds = %13
  %23 = and i64 %14, 4294967295
  %24 = getelementptr inbounds [100 x i8], [100 x i8]* %2, i64 0, i64 %23
  store i8 32, i8* %24, align 1, !tbaa !5
  %25 = add nuw i64 %9, 1
  %26 = getelementptr inbounds [100 x i8], [100 x i8]* %1, i64 0, i64 %25
  %27 = load i8, i8* %26, align 1, !tbaa !5
  %28 = icmp eq i8 %27, 0
  br i1 %28, label %7, label %8, !llvm.loop !10

29:                                               ; preds = %8, %17
  %30 = call nonnull align 8 dereferenceable(8) %"class.std::basic_ostream"* @_ZSt16__ostream_insertIcSt11char_traitsIcEERSt13basic_ostreamIT_T0_ES6_PKS3_l(%"class.std::basic_ostream"* nonnull align 8 dereferenceable(8) @_ZSt4cout, i8* nonnull getelementptr inbounds ([3 x i8], [3 x i8]* @.str, i64 0, i64 0), i64 2)
  %31 = load i8*, i8** bitcast (%"class.std::basic_ostream"* @_ZSt4cout to i8**), align 8, !tbaa !11
  %32 = getelementptr i8, i8* %31, i64 -24
  %33 = bitcast i8* %32 to i64*
  %34 = load i64, i64* %33, align 8
  %35 = add nsw i64 %34, 240
  %36 = getelementptr inbounds i8, i8* bitcast (%"class.std::basic_ostream"* @_ZSt4cout to i8*), i64 %35
  %37 = bitcast i8* %36 to %"class.std::ctype"**
  %38 = load %"class.std::ctype"*, %"class.std::ctype"** %37, align 8, !tbaa !13
  %39 = icmp eq %"class.std::ctype"* %38, null
  br i1 %39, label %40, label %41

40:                                               ; preds = %29
  call void @_ZSt16__throw_bad_castv() #8
  unreachable

41:                                               ; preds = %29
  %42 = getelementptr inbounds %"class.std::ctype", %"class.std::ctype"* %38, i64 0, i32 8
  %43 = load i8, i8* %42, align 8, !tbaa !17
  %44 = icmp eq i8 %43, 0
  br i1 %44, label %48, label %45

45:                                               ; preds = %41
  %46 = getelementptr inbounds %"class.std::ctype", %"class.std::ctype"* %38, i64 0, i32 9, i64 10
  %47 = load i8, i8* %46, align 1, !tbaa !5
  br label %110

48:                                               ; preds = %41
  call void @_ZNKSt5ctypeIcE13_M_widen_initEv(%"class.std::ctype"* nonnull align 8 dereferenceable(570) %38)
  %49 = bitcast %"class.std::ctype"* %38 to i8 (%"class.std::ctype"*, i8)***
  %50 = load i8 (%"class.std::ctype"*, i8)**, i8 (%"class.std::ctype"*, i8)*** %49, align 8, !tbaa !11
  %51 = getelementptr inbounds i8 (%"class.std::ctype"*, i8)*, i8 (%"class.std::ctype"*, i8)** %50, i64 6
  %52 = load i8 (%"class.std::ctype"*, i8)*, i8 (%"class.std::ctype"*, i8)** %51, align 8
  %53 = call signext i8 %52(%"class.std::ctype"* nonnull align 8 dereferenceable(570) %38, i8 signext 10)
  br label %110

54:                                               ; preds = %7, %58
  %55 = phi i64 [ %59, %58 ], [ 0, %7 ]
  %56 = getelementptr inbounds [100 x i8], [100 x i8]* %2, i64 0, i64 %55
  %57 = load i8, i8* %56, align 1, !tbaa !5
  switch i8 %57, label %60 [
    i8 32, label %58
    i8 0, label %85
  ]

58:                                               ; preds = %54
  %59 = add nuw i64 %55, 1
  br label %54, !llvm.loop !19

60:                                               ; preds = %54
  %61 = call nonnull align 8 dereferenceable(8) %"class.std::basic_ostream"* @_ZSt16__ostream_insertIcSt11char_traitsIcEERSt13basic_ostreamIT_T0_ES6_PKS3_l(%"class.std::basic_ostream"* nonnull align 8 dereferenceable(8) @_ZSt4cout, i8* nonnull getelementptr inbounds ([3 x i8], [3 x i8]* @.str, i64 0, i64 0), i64 2)
  %62 = load i8*, i8** bitcast (%"class.std::basic_ostream"* @_ZSt4cout to i8**), align 8, !tbaa !11
  %63 = getelementptr i8, i8* %62, i64 -24
  %64 = bitcast i8* %63 to i64*
  %65 = load i64, i64* %64, align 8
  %66 = add nsw i64 %65, 240
  %67 = getelementptr inbounds i8, i8* bitcast (%"class.std::basic_ostream"* @_ZSt4cout to i8*), i64 %66
  %68 = bitcast i8* %67 to %"class.std::ctype"**
  %69 = load %"class.std::ctype"*, %"class.std::ctype"** %68, align 8, !tbaa !13
  %70 = icmp eq %"class.std::ctype"* %69, null
  br i1 %70, label %71, label %72

71:                                               ; preds = %60
  call void @_ZSt16__throw_bad_castv() #8
  unreachable

72:                                               ; preds = %60
  %73 = getelementptr inbounds %"class.std::ctype", %"class.std::ctype"* %69, i64 0, i32 8
  %74 = load i8, i8* %73, align 8, !tbaa !17
  %75 = icmp eq i8 %74, 0
  br i1 %75, label %79, label %76

76:                                               ; preds = %72
  %77 = getelementptr inbounds %"class.std::ctype", %"class.std::ctype"* %69, i64 0, i32 9, i64 10
  %78 = load i8, i8* %77, align 1, !tbaa !5
  br label %110

79:                                               ; preds = %72
  call void @_ZNKSt5ctypeIcE13_M_widen_initEv(%"class.std::ctype"* nonnull align 8 dereferenceable(570) %69)
  %80 = bitcast %"class.std::ctype"* %69 to i8 (%"class.std::ctype"*, i8)***
  %81 = load i8 (%"class.std::ctype"*, i8)**, i8 (%"class.std::ctype"*, i8)*** %80, align 8, !tbaa !11
  %82 = getelementptr inbounds i8 (%"class.std::ctype"*, i8)*, i8 (%"class.std::ctype"*, i8)** %81, i64 6
  %83 = load i8 (%"class.std::ctype"*, i8)*, i8 (%"class.std::ctype"*, i8)** %82, align 8
  %84 = call signext i8 %83(%"class.std::ctype"* nonnull align 8 dereferenceable(570) %69, i8 signext 10)
  br label %110

85:                                               ; preds = %54
  %86 = call nonnull align 8 dereferenceable(8) %"class.std::basic_ostream"* @_ZSt16__ostream_insertIcSt11char_traitsIcEERSt13basic_ostreamIT_T0_ES6_PKS3_l(%"class.std::basic_ostream"* nonnull align 8 dereferenceable(8) @_ZSt4cout, i8* nonnull getelementptr inbounds ([4 x i8], [4 x i8]* @.str.1, i64 0, i64 0), i64 3)
  %87 = load i8*, i8** bitcast (%"class.std::basic_ostream"* @_ZSt4cout to i8**), align 8, !tbaa !11
  %88 = getelementptr i8, i8* %87, i64 -24
  %89 = bitcast i8* %88 to i64*
  %90 = load i64, i64* %89, align 8
  %91 = add nsw i64 %90, 240
  %92 = getelementptr inbounds i8, i8* bitcast (%"class.std::basic_ostream"* @_ZSt4cout to i8*), i64 %91
  %93 = bitcast i8* %92 to %"class.std::ctype"**
  %94 = load %"class.std::ctype"*, %"class.std::ctype"** %93, align 8, !tbaa !13
  %95 = icmp eq %"class.std::ctype"* %94, null
  br i1 %95, label %96, label %97

96:                                               ; preds = %85
  call void @_ZSt16__throw_bad_castv() #8
  unreachable

97:                                               ; preds = %85
  %98 = getelementptr inbounds %"class.std::ctype", %"class.std::ctype"* %94, i64 0, i32 8
  %99 = load i8, i8* %98, align 8, !tbaa !17
  %100 = icmp eq i8 %99, 0
  br i1 %100, label %104, label %101

101:                                              ; preds = %97
  %102 = getelementptr inbounds %"class.std::ctype", %"class.std::ctype"* %94, i64 0, i32 9, i64 10
  %103 = load i8, i8* %102, align 1, !tbaa !5
  br label %110

104:                                              ; preds = %97
  call void @_ZNKSt5ctypeIcE13_M_widen_initEv(%"class.std::ctype"* nonnull align 8 dereferenceable(570) %94)
  %105 = bitcast %"class.std::ctype"* %94 to i8 (%"class.std::ctype"*, i8)***
  %106 = load i8 (%"class.std::ctype"*, i8)**, i8 (%"class.std::ctype"*, i8)*** %105, align 8, !tbaa !11
  %107 = getelementptr inbounds i8 (%"class.std::ctype"*, i8)*, i8 (%"class.std::ctype"*, i8)** %106, i64 6
  %108 = load i8 (%"class.std::ctype"*, i8)*, i8 (%"class.std::ctype"*, i8)** %107, align 8
  %109 = call signext i8 %108(%"class.std::ctype"* nonnull align 8 dereferenceable(570) %94, i8 signext 10)
  br label %110

110:                                              ; preds = %104, %101, %79, %76, %48, %45
  %111 = phi i8 [ %47, %45 ], [ %53, %48 ], [ %78, %76 ], [ %84, %79 ], [ %103, %101 ], [ %109, %104 ]
  %112 = call nonnull align 8 dereferenceable(8) %"class.std::basic_ostream"* @_ZNSo3putEc(%"class.std::basic_ostream"* nonnull align 8 dereferenceable(8) @_ZSt4cout, i8 signext %111)
  %113 = call nonnull align 8 dereferenceable(8) %"class.std::basic_ostream"* @_ZNSo5flushEv(%"class.std::basic_ostream"* nonnull align 8 dereferenceable(8) %112)
  call void @llvm.lifetime.end.p0i8(i64 100, i8* nonnull %4) #7
  call void @llvm.lifetime.end.p0i8(i64 100, i8* nonnull %3) #7
  ret i32 0
}

; Function Attrs: argmemonly mustprogress nofree nosync nounwind willreturn
declare void @llvm.lifetime.start.p0i8(i64 immarg, i8* nocapture) #4

; Function Attrs: argmemonly mustprogress nofree nosync nounwind willreturn
declare void @llvm.lifetime.end.p0i8(i64 immarg, i8* nocapture) #4

declare void @_ZSt17__istream_extractRSiPcl(%"class.std::basic_istream"* nonnull align 8 dereferenceable(16), i8*, i64) local_unnamed_addr #0

declare nonnull align 8 dereferenceable(8) %"class.std::basic_ostream"* @_ZSt16__ostream_insertIcSt11char_traitsIcEERSt13basic_ostreamIT_T0_ES6_PKS3_l(%"class.std::basic_ostream"* nonnull align 8 dereferenceable(8), i8*, i64) local_unnamed_addr #0

declare nonnull align 8 dereferenceable(8) %"class.std::basic_ostream"* @_ZNSo3putEc(%"class.std::basic_ostream"* nonnull align 8 dereferenceable(8), i8 signext) local_unnamed_addr #0

declare nonnull align 8 dereferenceable(8) %"class.std::basic_ostream"* @_ZNSo5flushEv(%"class.std::basic_ostream"* nonnull align 8 dereferenceable(8)) local_unnamed_addr #0

; Function Attrs: noreturn
declare void @_ZSt16__throw_bad_castv() local_unnamed_addr #5

declare void @_ZNKSt5ctypeIcE13_M_widen_initEv(%"class.std::ctype"* nonnull align 8 dereferenceable(570)) local_unnamed_addr #0

; Function Attrs: sspstrong uwtable
define internal void @_GLOBAL__sub_I_919.cpp() #6 section ".text.startup" {
  tail call void @_ZNSt8ios_base4InitC1Ev(%"class.std::ios_base::Init"* nonnull align 1 dereferenceable(1) @_ZStL8__ioinit)
  %1 = tail call i32 @__cxa_atexit(void (i8*)* bitcast (void (%"class.std::ios_base::Init"*)* @_ZNSt8ios_base4InitD1Ev to void (i8*)*), i8* getelementptr inbounds (%"class.std::ios_base::Init", %"class.std::ios_base::Init"* @_ZStL8__ioinit, i64 0, i32 0), i8* nonnull @__dso_handle) #7
  ret void
}


!llvm.module.flags = !{!0, !1, !2, !3}
!llvm.ident = !{!4}

!0 = !{i32 1, !"wchar_size", i32 4}
!1 = !{i32 7, !"PIC Level", i32 2}
!2 = !{i32 7, !"PIE Level", i32 2}
!3 = !{i32 7, !"uwtable", i32 1}
!4 = !{!"clang version 13.0.0"}
!5 = !{!6, !6, i64 0}
!6 = !{!"omnipotent char", !7, i64 0}
!7 = !{!"Simple C++ TBAA"}
!8 = distinct !{!8, !9}
!9 = !{!"llvm.loop.mustprogress"}
!10 = distinct !{!10, !9}
!11 = !{!12, !12, i64 0}
!12 = !{!"vtable pointer", !7, i64 0}
!13 = !{!14, !15, i64 240}
!14 = !{!"_ZTSSt9basic_iosIcSt11char_traitsIcEE", !15, i64 216, !6, i64 224, !16, i64 225, !15, i64 232, !15, i64 240, !15, i64 248, !15, i64 256}
!15 = !{!"any pointer", !6, i64 0}
!16 = !{!"bool", !6, i64 0}
!17 = !{!18, !6, i64 56}
!18 = !{!"_ZTSSt5ctypeIcE", !15, i64 16, !16, i64 24, !15, i64 32, !15, i64 40, !15, i64 48, !6, i64 56, !6, i64 57, !6, i64 313, !6, i64 569}
!19 = distinct !{!19, !9}
